target datalayout = "e-m:e-p270:32:32-p271:32:32-p272:64:64-i64:64-i128:128-f80:128-n8:16:32:64-S128"
target triple = "x86_64-pc-linux-gnu"

%struct.XXH128_hash_t = type { i64, i64 }
%struct.XXH128_canonical_t = type { [16 x i8] }

; Function Attrs: mustprogress nounwind uwtable
define internal noundef i64 @_ZL10XXH_swap64m(i64 noundef %0) #4 {
  %2 = alloca i64, align 8
  store i64 %0, ptr %2, align 8, !tbaa !8
  %3 = load i64, ptr %2, align 8, !tbaa !8
  %4 = shl i64 %3, 56
  %5 = and i64 %4, -72057594037927936
  %6 = load i64, ptr %2, align 8, !tbaa !8
  %7 = shl i64 %6, 40
  %8 = and i64 %7, 71776119061217280
  %9 = or i64 %5, %8
  %10 = load i64, ptr %2, align 8, !tbaa !8
  %11 = shl i64 %10, 24
  %12 = and i64 %11, 280375465082880
  %13 = or i64 %9, %12
  %14 = load i64, ptr %2, align 8, !tbaa !8
  %15 = shl i64 %14, 8
  %16 = and i64 %15, 1095216660480
  %17 = or i64 %13, %16
  %18 = load i64, ptr %2, align 8, !tbaa !8
  %19 = lshr i64 %18, 8
  %20 = and i64 %19, 4278190080
  %21 = or i64 %17, %20
  %22 = load i64, ptr %2, align 8, !tbaa !8
  %23 = lshr i64 %22, 24
  %24 = and i64 %23, 16711680
  %25 = or i64 %21, %24
  %26 = load i64, ptr %2, align 8, !tbaa !8
  %27 = lshr i64 %26, 40
  %28 = and i64 %27, 65280
  %29 = or i64 %25, %28
  %30 = load i64, ptr %2, align 8, !tbaa !8
  %31 = lshr i64 %30, 56
  %32 = and i64 %31, 255
  %33 = or i64 %29, %32
  ret i64 %33
}

; Function Attrs: mustprogress nounwind uwtable
define internal noundef i64 @_ZL10XXH_read64PKv(ptr noundef %0) #4 {
  %2 = alloca ptr, align 8
  store ptr %0, ptr %2, align 8, !tbaa !4
  %3 = load ptr, ptr %2, align 8, !tbaa !4
  %4 = load i64, ptr %3, align 1, !tbaa !8
  ret i64 %4
}

; Function Attrs: mustprogress nounwind uwtable
define internal noundef i64 @_ZL12XXH_readBE64PKv(ptr noundef %0) #4 {
  %2 = alloca ptr, align 8
  store ptr %0, ptr %2, align 8, !tbaa !4
  %3 = load ptr, ptr %2, align 8, !tbaa !4
  %4 = call noundef i64 @_ZL10XXH_read64PKv(ptr noundef %3)
  %5 = call noundef i64 @_ZL10XXH_swap64m(i64 noundef %4)
  ret i64 %5
}

; Function Attrs: mustprogress nounwind willreturn memory(read) uwtable
define { i64, i64 } @ROCKSDB_XXH128_hashFromCanonical(ptr noundef captures(none) %0) #1 {
  %2 = alloca %struct.XXH128_hash_t, align 8
  %3 = alloca ptr, align 8
  store ptr %0, ptr %3, align 8, !tbaa !4
  %4 = load ptr, ptr %3, align 8, !tbaa !4
  %5 = call noundef i64 @_ZL12XXH_readBE64PKv(ptr noundef %4)
  %6 = getelementptr inbounds nuw %struct.XXH128_hash_t, ptr %2, i32 0, i32 1
  store i64 %5, ptr %6, align 8, !tbaa !60
  %7 = load ptr, ptr %3, align 8, !tbaa !4
  %8 = getelementptr inbounds nuw %struct.XXH128_canonical_t, ptr %7, i32 0, i32 0
  %9 = getelementptr inbounds [16 x i8], ptr %8, i64 0, i64 0
  %10 = getelementptr inbounds i8, ptr %9, i64 8
  %11 = call noundef i64 @_ZL12XXH_readBE64PKv(ptr noundef %10)
  %12 = getelementptr inbounds nuw %struct.XXH128_hash_t, ptr %2, i32 0, i32 0
  store i64 %11, ptr %12, align 8, !tbaa !58
  %13 = load { i64, i64 }, ptr %2, align 8
  ret { i64, i64 } %13
}