; Function Attrs: mustprogress nofree norecurse nosync nounwind willreturn memory(argmem: read) uwtable
define { i64, i64 } @ROCKSDB_XXH128_hashFromCanonical(ptr noundef readonly captures(none) %0) local_unnamed_addr #9 {
  %.val2 = load i64, ptr %0, align 1, !tbaa !19
  %2 = tail call noundef i64 @llvm.bswap.i64(i64 %.val2)
  %3 = getelementptr inbounds nuw i8, ptr %0, i64 8
  %.val = load i64, ptr %3, align 1, !tbaa !19
  %4 = tail call noundef i64 @llvm.bswap.i64(i64 %.val)
  %.fca.0.insert = insertvalue { i64, i64 } poison, i64 %4, 0
  %.fca.1.insert = insertvalue { i64, i64 } %.fca.0.insert, i64 %2, 1
  ret { i64, i64 } %.fca.1.insert
}